(dp1
(S'one or more new individuals'
p2
S'new individual'
p3
tp4
(dp5
Vconfidence
p6
F1
sValignments
p7
(lp8
(dp9
Vy
(lp10
Vindividual
p11
aVAny
p12
aI1
asVx
(lp13
Vmore
p14
aVAny
p15
aI2
asVscore
p16
F1
sVrelations
p17
(lp18
(dp19
Vpath
p20
(lp21
Vmore
p22
aVwriter
p23
aVcommunicator
p24
aVperson
p25
asVscore
p26
F1
sVdescription
p27
V[hyponym('more', 'individual') = 1.000] via (more < writer < communicator < person) : a human being; 
p28
sV$$$relationName
p29
VHypernym
p30
sasa(dp31
Vy
(lp32
Vnew
p33
aVAny
p34
aI0
asVx
(lp35
Vnew
p36
aVAny
p37
aI3
asVscore
p38
F1
sVrelations
p39
(lp40
(dp41
Vscore
p42
F1
sVdescription
p43
V[synonym('new', 'new') = 1.0 : [text equality]
p44
sV$$$relationName
p45
VSynonym
p46
sasass(S'producing'
p47
S'just one parent'
p48
tp49
(dp50
Vconfidence
p51
F0
sValignments
p52
(lp53
ss(g48
S'creating'
p54
tp55
(dp56
Vconfidence
p57
F0
sValignments
p58
(lp59
ss(S'reproducing'
p60
S'single parent'
p61
tp62
(dp63
Vconfidence
p64
F0
sValignments
p65
(lp66
ss(S'creating'
p67
S'one individual organism'
p68
tp69
(dp70
Vconfidence
p71
F0
sValignments
p72
(lp73
ss(S'individual'
p74
S'formation'
p75
tp76
(dp77
Vconfidence
p78
F0
sValignments
p79
(lp80
ss(g2
g48
tp81
(dp82
Vconfidence
p83
F0.27772180594978818
sValignments
p84
(lp85
(dp86
Vy
(lp87
Vone
p88
aVAny
p89
aI1
asVx
(lp90
Vone
p91
aVAny
p92
aI0
asVscore
p93
F1
sVrelations
p94
(lp95
(dp96
Vscore
p97
F1
sVdescription
p98
V[synonym('one', 'one') = 1.0 : [text equality]
p99
sV$$$relationName
p100
VSynonym
p101
sasass(S'individual'
p102
S'offspring'
p103
tp104
(dp105
Vconfidence
p106
F0.5714285714285714
sValignments
p107
(lp108
(dp109
Vy
(lp110
Vindividual
p111
aVAny
p112
aI0
asVx
(lp113
Voffspring
p114
aVAny
p115
aI0
asVscore
p116
F0.5714285714285714
sVrelations
p117
(lp118
(dp119
Vpath
p120
(lp121
Voffspring
p122
aVrelative
p123
aVperson
p124
asVscore
p125
F0.5714285714285714
sVdescription
p126
V[hyponym('offspring', 'individual') = 0.571] via (offspring < relative < person) : a human being; 
p127
sV$$$relationName
p128
VHypernym
p129
sasass(g48
g68
tp130
(dp131
Vconfidence
p132
F0.27772180594978818
sValignments
p133
(lp134
(dp135
Vy
(lp136
Vone
p137
aVAny
p138
aI1
asVx
(lp139
Vone
p140
aVAny
p141
aI0
asVscore
p142
F1
sVrelations
p143
(lp144
(dp145
Vscore
p146
F1
sVdescription
p147
V[synonym('one', 'one') = 1.0 : [text equality]
p148
sV$$$relationName
p149
VSynonym
p150
sasass(g103
g48
tp151
(dp152
Vconfidence
p153
F0
sValignments
p154
(lp155
ss(g61
g68
tp156
(dp157
Vconfidence
p158
F0.04889223567966091
sValignments
p159
(lp160
(dp161
Vy
(lp162
Vsingle
p163
aVAny
p164
aI0
asVx
(lp165
Vindividual
p166
aVAny
p167
aI1
asVscore
p168
F0.10765726043503819
sVrelations
p169
(lp170
(dp171
Vscore
p172
F0.10747354497354496
sVdescription
p173
V[synonym('individual', 'single') = 0.107 : being or characteristic of a single thing or person; 
p174
sV$$$relationName
p175
VSynonym
p176
sa(dp177
Vscore
p178
F0.00018371546149323925
sVdescription
p179
V[synonym('individual', 'single') = 0.000 : characteristic of or meant for a single person or thing; 
p180
sV$$$relationName
p181
VSynonym
p182
sasass(g3
g68
tp183
(dp184
Vconfidence
p185
F0.54349801847755896
sValignments
p186
(lp187
(dp188
Vy
(lp189
Vindividual
p190
aVAny
p191
aI1
asVx
(lp192
Vindividual
p193
aVAny
p194
aI1
asVscore
p195
F1
sVrelations
p196
(lp197
(dp198
Vscore
p199
F1
sVdescription
p200
V[synonym('individual', 'individual') = 1.0 : [text equality]
p201
sV$$$relationName
p202
VSynonym
p203
sasass(g61
S'just one parent'
p204
tp205
(dp206
Vconfidence
p207
F0.55034186939536467
sValignments
p208
(lp209
(dp210
Vy
(lp211
Vparent
p212
aVAny
p213
aI1
asVx
(lp214
Vparent
p215
aVAny
p216
aI2
asVscore
p217
F1
sVrelations
p218
(lp219
(dp220
Vscore
p221
F1
sVdescription
p222
V[synonym('parent', 'parent') = 1.0 : [text equality]
p223
sV$$$relationName
p224
VSynonym
p225
sasa(dp226
Vy
(lp227
Vsingle
p228
aVAny
p229
aI0
asVx
(lp230
Vone
p231
aVAny
p232
aI1
asVscore
p233
F0.011574074074074073
sVrelations
p234
(lp235
(dp236
Vscore
p237
F0.011574074074074073
sVdescription
p238
V[synonym('one', 'single') = 0.012 : the smallest whole number or a numeral representing this number; 
p239
sV$$$relationName
p240
VSynonym
p241
sasass(S'cells of a single parent'
p242
g2
tp243
(dp244
Vconfidence
p245
F0.023022612223418983
sValignments
p246
(lp247
(dp248
Vy
(lp249
Vsingle
p250
aVAny
p251
aI3
asVx
(lp252
Vindividual
p253
aVAny
p254
aI4
asVscore
p255
F0.10765726043503819
sVrelations
p256
(lp257
(dp258
Vscore
p259
F0.10747354497354496
sVdescription
p260
V[synonym('individual', 'single') = 0.107 : being or characteristic of a single thing or person; 
p261
sV$$$relationName
p262
VSynonym
p263
sa(dp264
Vscore
p265
F0.00018371546149323925
sVdescription
p266
V[synonym('individual', 'single') = 0.000 : characteristic of or meant for a single person or thing; 
p267
sV$$$relationName
p268
VSynonym
p269
sasass(g242
g47
tp270
(dp271
Vconfidence
p272
F0
sValignments
p273
(lp274
ss(g2
g67
tp275
(dp276
Vconfidence
p277
F0
sValignments
p278
(lp279
ss(g47
g3
tp280
(dp281
Vconfidence
p282
F0
sValignments
p283
(lp284
ss(g75
g54
tp285
(dp286
Vconfidence
p287
F0
sValignments
p288
(lp289
ss(g3
S'formation'
p290
tp291
(dp292
Vconfidence
p293
F0
sValignments
p294
(lp295
ss(g68
g67
tp296
g70
s(g103
g3
tp297
(dp298
Vconfidence
p299
F0.31057029627289079
sValignments
p300
(lp301
(dp302
Vy
(lp303
Vindividual
p304
aVAny
p305
aI1
asVx
(lp306
Voffspring
p307
aVAny
p308
aI0
asVscore
p309
F0.5714285714285714
sVrelations
p310
(lp311
(dp312
Vpath
p313
(lp314
Voffspring
p315
aVrelative
p316
aVperson
p317
asVscore
p318
F0.5714285714285714
sVdescription
p319
V[hyponym('offspring', 'individual') = 0.571] via (offspring < relative < person) : a human being; 
p320
sV$$$relationName
p321
VHypernym
p322
sasass(g48
g60
tp323
(dp324
Vconfidence
p325
F0
sValignments
p326
(lp327
ss(g60
g48
tp328
g324
s(g103
g61
tp329
(dp330
Vconfidence
p331
F0
sValignments
p332
(lp333
ss(g242
g54
tp334
(dp335
Vconfidence
p336
F0
sValignments
p337
(lp338
ss(g54
S'offspring'
p339
tp340
(dp341
Vconfidence
p342
F0
sValignments
p343
(lp344
ss(g61
g47
tp345
(dp346
Vconfidence
p347
F0
sValignments
p348
(lp349
ss(g204
g75
tp350
(dp351
Vconfidence
p352
F0
sValignments
p353
(lp354
ss(g102
g47
tp355
(dp356
Vconfidence
p357
F0
sValignments
p358
(lp359
ss(g61
g103
tp360
g330
s(g75
g204
tp361
g351
s(g48
g103
tp362
g152
s(g75
g74
tp363
g77
s(g60
g75
tp364
(dp365
Vconfidence
p366
F0
sValignments
p367
(lp368
ss(g3
g103
tp369
g298
s(g68
g102
tp370
(dp371
Vconfidence
p372
F1
sValignments
p373
(lp374
(dp375
Vy
(lp376
Vindividual
p377
aVAny
p378
aI0
asVx
(lp379
Vindividual
p380
aVAny
p381
aI1
asVscore
p382
F1
sVrelations
p383
(lp384
(dp385
Vscore
p386
F1
sVdescription
p387
V[synonym('individual', 'individual') = 1.0 : [text equality]
p388
sV$$$relationName
p389
VSynonym
p390
sasass(g47
g67
tp391
(dp392
Vconfidence
p393
F0.29754601226993865
sValignments
p394
(lp395
(dp396
Vy
(lp397
Vcreate
p398
aVAny
p399
aI0
asVx
(lp400
Vproduce
p401
aVAny
p402
aI0
asVscore
p403
F0.29837678936605316
sVrelations
p404
(lp405
(dp406
Vpath
p407
(lp408
Vproduce
p409
aVmake
p410
asVscore
p411
F0.29754601226993865
sVdescription
p412
V[hyponym('produce', 'create') = 0.298] via (produce < make) : make or cause to be or to become; 
p413
sV$$$relationName
p414
VHypernym
p415
sa(dp416
Vscore
p417
F0.00083077709611451944
sVdescription
p418
V[synonym('produce', 'create') = 0.001 : create or manufacture a man-made product; 
p419
sV$$$relationName
p420
VSynonym
p421
sasass(S'producing'
p422
g60
tp423
(dp424
Vconfidence
p425
F0.77777777777777779
sValignments
p426
(lp427
(dp428
Vy
(lp429
Vproduce
p430
aVAny
p431
aI0
asVx
(lp432
Vreproduce
p433
aVAny
p434
aI0
asVscore
p435
F0.77777777777777779
sVrelations
p436
(lp437
(dp438
Vpath
p439
(lp440
Vreproduce
p441
aVproduce
p442
asVscore
p443
F0.77777777777777779
sVdescription
p444
V[hyponym('reproduce', 'produce') = 0.778] via (reproduce < produce) : create or manufacture a man-made product; 
p445
sV$$$relationName
p446
VHypernym
p447
sasass(g54
g61
tp448
(dp449
Vconfidence
p450
F0
sValignments
p451
(lp452
ss(g242
g103
tp453
(dp454
Vconfidence
p455
F0
sValignments
p456
(lp457
ss(g3
g2
tp458
g5
s(g339
g54
tp459
g341
s(g60
S'one individual organism'
p460
tp461
(dp462
Vconfidence
p463
F0
sValignments
p464
(lp465
ss(g75
S'single parent'
p466
tp467
(dp468
Vconfidence
p469
F0
sValignments
p470
(lp471
ss(g61
g54
tp472
g449
s(g2
g61
tp473
(dp474
Vconfidence
p475
F0.04889223567966091
sValignments
p476
(lp477
(dp478
Vy
(lp479
Vsingle
p480
aVAny
p481
aI0
asVx
(lp482
Vindividual
p483
aVAny
p484
aI4
asVscore
p485
F0.10765726043503819
sVrelations
p486
(lp487
(dp488
Vscore
p489
F0.10747354497354496
sVdescription
p490
V[synonym('individual', 'single') = 0.107 : being or characteristic of a single thing or person; 
p491
sV$$$relationName
p492
VSynonym
p493
sa(dp494
Vscore
p495
F0.00018371546149323925
sVdescription
p496
V[synonym('individual', 'single') = 0.000 : characteristic of or meant for a single person or thing; 
p497
sV$$$relationName
p498
VSynonym
p499
sasass(g75
g103
tp500
(dp501
Vconfidence
p502
F0
sValignments
p503
(lp504
ss(g68
g242
tp505
(dp506
Vconfidence
p507
F0.023022612223418983
sValignments
p508
(lp509
(dp510
Vy
(lp511
Vsingle
p512
aVAny
p513
aI3
asVx
(lp514
Vindividual
p515
aVAny
p516
aI1
asVscore
p517
F0.10765726043503819
sVrelations
p518
(lp519
(dp520
Vscore
p521
F0.10747354497354496
sVdescription
p522
V[synonym('individual', 'single') = 0.107 : being or characteristic of a single thing or person; 
p523
sV$$$relationName
p524
VSynonym
p525
sa(dp526
Vscore
p527
F0.00018371546149323925
sVdescription
p528
V[synonym('individual', 'single') = 0.000 : characteristic of or meant for a single person or thing; 
p529
sV$$$relationName
p530
VSynonym
p531
sasass(g3
g74
tp532
(dp533
Vconfidence
p534
F0.54349801847755896
sValignments
p535
(lp536
(dp537
Vy
(lp538
Vindividual
p539
aVAny
p540
aI1
asVx
(lp541
Vindividual
p542
aVAny
p543
aI0
asVscore
p544
F1
sVrelations
p545
(lp546
(dp547
Vscore
p548
F1
sVdescription
p549
V[synonym('individual', 'individual') = 1.0 : [text equality]
p550
sV$$$relationName
p551
VSynonym
p552
sasass(g54
g3
tp553
(dp554
Vconfidence
p555
F0
sValignments
p556
(lp557
ss(g48
g2
tp558
g82
s(g3
g204
tp559
(dp560
Vconfidence
p561
F0.5288088828430304
sValignments
p562
(lp563
(dp564
Vy
(lp565
Vindividual
p566
aVAny
p567
aI1
asVx
(lp568
Vparent
p569
aVAny
p570
aI2
asVscore
p571
F0.97297297297297303
sVrelations
p572
(lp573
(dp574
Vpath
p575
(lp576
Vparent
p577
aVgenitor
p578
aVprogenitor
p579
aVancestor
p580
aVrelative
p581
aVperson
p582
asVscore
p583
F0.97297297297297303
sVdescription
p584
V[hyponym('parent', 'individual') = 0.973] via (parent < genitor < progenitor < ancestor < relative < person) : a human being; 
p585
sV$$$relationName
p586
VHypernym
p587
sasass(g67
g60
tp588
(dp589
Vconfidence
p590
F0.77777777777777779
sValignments
p591
(lp592
(dp593
Vy
(lp594
Vcreate
p595
aVAny
p596
aI0
asVx
(lp597
Vreproduce
p598
aVAny
p599
aI0
asVscore
p600
F0.94444444444444442
sVrelations
p601
(lp602
(dp603
Vpath
p604
(lp605
Vreproduce
p606
aVproduce
p607
asVscore
p608
F0.77777777777777779
sVdescription
p609
V[hyponym('reproduce', 'create') = 0.778] via (reproduce < produce) : create or manufacture a man-made product; 
p610
sV$$$relationName
p611
VHypernym
p612
sa(dp613
Vpath
p614
(lp615
Vreproduce
p616
aVmake
p617
asVscore
p618
F0.16666666666666666
sVdescription
p619
V[hyponym('reproduce', 'create') = 0.167] via (reproduce < make) : make or cause to be or to become; 
p620
sV$$$relationName
p621
VHypernym
p622
sasass(g242
g290
tp623
(dp624
Vconfidence
p625
F0
sValignments
p626
(lp627
ss(g102
g2
tp628
(dp629
Vconfidence
p630
F1
sValignments
p631
(lp632
(dp633
Vy
(lp634
Vindividual
p635
aVAny
p636
aI0
asVx
(lp637
Vmore
p638
aVAny
p639
aI2
asVscore
p640
F1
sVrelations
p641
(lp642
(dp643
Vpath
p644
(lp645
Vmore
p646
aVwriter
p647
aVcommunicator
p648
aVperson
p649
asVscore
p650
F1
sVdescription
p651
V[hyponym('more', 'individual') = 1.000] via (more < writer < communicator < person) : a human being; 
p652
sV$$$relationName
p653
VHypernym
p654
sasass(g48
g47
tp655
g50
s(g61
g60
tp656
g63
s(g75
g47
tp657
(dp658
Vconfidence
p659
F0
sValignments
p660
(lp661
ss(g54
g48
tp662
g56
s(g60
g3
tp663
(dp664
Vconfidence
p665
F0
sValignments
p666
(lp667
ss(g60
g422
tp668
g424
s(g60
S'one or more new individuals'
p669
tp670
(dp671
Vconfidence
p672
F0
sValignments
p673
(lp674
ss(g103
g102
tp675
g105
s(g68
g339
tp676
(dp677
Vconfidence
p678
F0
sValignments
p679
(lp680
ss(g242
g68
tp681
g506
s(g466
g242
tp682
(dp683
Vconfidence
p684
F0.47088483280375643
sValignments
p685
(lp686
(dp687
Vy
(lp688
Vparent
p689
aVAny
p690
aI4
asVx
(lp691
Vparent
p692
aVAny
p693
aI1
asVscore
p694
F1
sVrelations
p695
(lp696
(dp697
Vscore
p698
F1
sVdescription
p699
V[synonym('parent', 'parent') = 1.0 : [text equality]
p700
sV$$$relationName
p701
VSynonym
p702
sasa(dp703
Vy
(lp704
Vsingle
p705
aVAny
p706
aI3
asVx
(lp707
Vsingle
p708
aVAny
p709
aI0
asVscore
p710
F1
sVrelations
p711
(lp712
(dp713
Vscore
p714
F1
sVdescription
p715
V[synonym('single', 'single') = 1.0 : [text equality]
p716
sV$$$relationName
p717
VSynonym
p718
sasass(g2
g75
tp719
(dp720
Vconfidence
p721
F0
sValignments
p722
(lp723
ss(g60
g339
tp724
(dp725
Vconfidence
p726
F0
sValignments
p727
(lp728
ss(g54
g67
tp729
(dp730
Vconfidence
p731
F1
sValignments
p732
(lp733
(dp734
Vy
(lp735
Vcreate
p736
aVAny
p737
aI0
asVx
(lp738
Vcreate
p739
aVAny
p740
aI0
asVscore
p741
F1
sVrelations
p742
(lp743
(dp744
Vscore
p745
F1
sVdescription
p746
V[synonym('create', 'create') = 1.0 : [text equality]
p747
sV$$$relationName
p748
VSynonym
p749
sasass(g103
g75
tp750
g501
s(g242
g204
tp751
(dp752
Vconfidence
p753
F0.25914763915514305
sValignments
p754
(lp755
(dp756
Vy
(lp757
Vparent
p758
aVAny
p759
aI4
asVx
(lp760
Vparent
p761
aVAny
p762
aI2
asVscore
p763
F1
sVrelations
p764
(lp765
(dp766
Vscore
p767
F1
sVdescription
p768
V[synonym('parent', 'parent') = 1.0 : [text equality]
p769
sV$$$relationName
p770
VSynonym
p771
sasa(dp772
Vy
(lp773
Vsingle
p774
aVAny
p775
aI3
asVx
(lp776
Vone
p777
aVAny
p778
aI1
asVscore
p779
F0.011574074074074073
sVrelations
p780
(lp781
(dp782
Vscore
p783
F0.011574074074074073
sVdescription
p784
V[synonym('one', 'single') = 0.012 : the smallest whole number or a numeral representing this number; 
p785
sV$$$relationName
p786
VSynonym
p787
sasass(g74
g242
tp788
(dp789
Vconfidence
p790
F0.023022612223418983
sValignments
p791
(lp792
(dp793
Vy
(lp794
Vsingle
p795
aVAny
p796
aI3
asVx
(lp797
Vindividual
p798
aVAny
p799
aI0
asVscore
p800
F0.10765726043503819
sVrelations
p801
(lp802
(dp803
Vscore
p804
F0.10747354497354496
sVdescription
p805
V[synonym('individual', 'single') = 0.107 : being or characteristic of a single thing or person; 
p806
sV$$$relationName
p807
VSynonym
p808
sa(dp809
Vscore
p810
F0.00018371546149323925
sVdescription
p811
V[synonym('individual', 'single') = 0.000 : characteristic of or meant for a single person or thing; 
p812
sV$$$relationName
p813
VSynonym
p814
sasass(g75
g68
tp815
(dp816
Vconfidence
p817
F0
sValignments
p818
(lp819
ss(g466
g75
tp820
g468
s(g242
g74
tp821
g789
s(g102
g204
tp822
(dp823
Vconfidence
p824
F0.97297297297297303
sValignments
p825
(lp826
(dp827
Vy
(lp828
Vindividual
p829
aVAny
p830
aI0
asVx
(lp831
Vparent
p832
aVAny
p833
aI2
asVscore
p834
F0.97297297297297303
sVrelations
p835
(lp836
(dp837
Vpath
p838
(lp839
Vparent
p840
aVgenitor
p841
aVprogenitor
p842
aVancestor
p843
aVrelative
p844
aVperson
p845
asVscore
p846
F0.97297297297297303
sVdescription
p847
V[hyponym('parent', 'individual') = 0.973] via (parent < genitor < progenitor < ancestor < relative < person) : a human being; 
p848
sV$$$relationName
p849
VHypernym
p850
sasass(g2
g242
tp851
g244
s(g204
g3
tp852
g560
s(g339
g60
tp853
g725
s(g68
g48
tp854
g131
s(g67
g47
tp855
g392
s(g47
g102
tp856
g356
s(g460
g60
tp857
g462
s(g103
g242
tp858
g454
s(g242
g466
tp859
g683
s(g75
g60
tp860
g365
s(g47
g242
tp861
g271
s(g2
g102
tp862
g629
s(g54
g242
tp863
g335
s(g60
g102
tp864
(dp865
Vconfidence
p866
F0
sValignments
p867
(lp868
ss(g3
g60
tp869
g664
s(g204
g61
tp870
g206
s(g339
g68
tp871
g677
s(g339
g2
tp872
(dp873
Vconfidence
p874
F0
sValignments
p875
(lp876
ss(g290
g75
tp877
(dp878
Vconfidence
p879
F1
sValignments
p880
(lp881
(dp882
Vy
(lp883
Vformation
p884
aVAny
p885
aI0
asVx
(lp886
Vformation
p887
aVAny
p888
aI0
asVscore
p889
F1
sVrelations
p890
(lp891
(dp892
Vscore
p893
F1
sVdescription
p894
V[synonym('formation', 'formation') = 1.0 : [text equality]
p895
sV$$$relationName
p896
VSynonym
p897
sasass(g290
g3
tp898
g292
s(g242
g60
tp899
(dp900
Vconfidence
p901
F0
sValignments
p902
(lp903
ss(g61
g2
tp904
g474
s(g75
g2
tp905
g720
s(g68
g75
tp906
g816
s(g68
g3
tp907
g184
s(g466
g3
tp908
(dp909
Vconfidence
p910
F0.5288088828430304
sValignments
p911
(lp912
(dp913
Vy
(lp914
Vindividual
p915
aVAny
p916
aI1
asVx
(lp917
Vparent
p918
aVAny
p919
aI1
asVscore
p920
F0.97297297297297303
sVrelations
p921
(lp922
(dp923
Vpath
p924
(lp925
Vparent
p926
aVgenitor
p927
aVprogenitor
p928
aVancestor
p929
aVrelative
p930
aVperson
p931
asVscore
p932
F0.97297297297297303
sVdescription
p933
V[hyponym('parent', 'individual') = 0.973] via (parent < genitor < progenitor < ancestor < relative < person) : a human being; 
p934
sV$$$relationName
p935
VHypernym
p936
sasass(g3
g466
tp937
g909
s(g102
g54
tp938
(dp939
Vconfidence
p940
F0
sValignments
p941
(lp942
ss(g669
g60
tp943
g671
s(g47
g61
tp944
g346
s(g102
g60
tp945
g865
s(g339
g47
tp946
(dp947
Vconfidence
p948
F0
sValignments
p949
(lp950
ss(g102
g68
tp951
g371
s(g47
g339
tp952
g947
s(g60
g67
tp953
g589
s(g60
g242
tp954
g900
s(g54
g102
tp955
g939
s(g47
g75
tp956
g658
s(g290
g242
tp957
g624
s(g2
g339
tp958
g873
s(g204
g102
tp959
g823
s(g204
g242
tp960
g752
s(g103
g339
tp961
(dp962
Vconfidence
p963
F1
sValignments
p964
(lp965
(dp966
Vy
(lp967
Voffspring
p968
aVAny
p969
aI0
asVx
(lp970
Voffspring
p971
aVAny
p972
aI0
asVscore
p973
F1
sVrelations
p974
(lp975
(dp976
Vscore
p977
F1
sVdescription
p978
V[synonym('offspring', 'offspring') = 1.0 : [text equality]
p979
sV$$$relationName
p980
VSynonym
p981
sasass(g67
g2
tp982
g276
s(g3
g54
tp983
g554
s(g54
g75
tp984
g286
s(g3
g47
tp985
g281
s(g74
g3
tp986
g533
s(g68
g61
tp987
g157
s.