(dp1
(S'liquid'
p2
S'water vapor'
p3
tp4
cnumpy.core.multiarray
scalar
p5
(cnumpy
dtype
p6
(S'f8'
I0
I1
tRp7
(I3
S'<'
NNNI-1
I-1
I0
tbS'\xa1\xe8\x1e\x04Z\xd8\xef?'
tRp8
s(g2
S'damp'
p9
tp10
g5
(g6
(S'f4'
I0
I1
tRp11
(I3
S'<'
NNNI-1
I-1
I0
tbS'\r(E?'
tRp12
s(S'returning'
p13
S'gas'
p14
tp15
g5
(g11
S'\xc5z|?'
tRp16
s(g13
S'a liquid'
p17
tp18
g5
(g7
S'\xf0\xcf\xe8\xfe_<\xee?'
tRp19
s(S'turning'
p20
g3
tp21
g5
(g7
S'8j\xae\x87\xdf\x9d\xef?'
tRp22
s(S'vapor'
p23
S'gas'
p24
tp25
g5
(g11
S'f\xb8/?'
tRp26
s(S'converting'
p27
S'liquid water'
p28
tp29
g5
(g7
S'\xed\xd8\xd2\x16\x88\xbf\xef?'
tRp30
s(S'liquid water'
p31
g14
tp32
g5
(g7
S'=\x07I46\x99\xef?'
tRp33
s(g27
S'returning'
p34
tp35
g5
(g11
S'\xd2\xe5B?'
tRp36
s(S'liquid'
p37
g27
tp38
g5
(g11
S'\x89\x8ec?'
tRp39
s(g14
S'water vapor'
p40
tp41
g5
(g7
S'\x02\x05\xf2\xe0\xca\xb4\xf1?'
tRp42
s(g17
g20
tp43
g5
(g7
S'"\xadV\xa2y\x96\xef?'
tRp44
s(S'vapor'
p45
g23
tp46
g5
(g11
S'\x00\x00\x00\xb4'
tRp47
s(g13
g23
tp48
g5
(g11
S's\x07\x87?'
tRp49
s(g17
g13
tp50
g19
s(g27
g23
tp51
g5
(g11
S'\xe8\x16a?'
tRp52
s(g3
g27
tp53
g5
(g7
S';q\x029C\xbb\xf0?'
tRp54
s(g23
g31
tp55
g5
(g7
S'+\x15\x02\xe4\x00\x0b\xf0?'
tRp56
s(g14
S'changing'
p57
tp58
g5
(g11
S'\x17\xf9q?'
tRp59
s(g31
g28
tp60
g5
(g7
S'\xed\xa0\xb2\xabE\xa1\xf1?'
tRp61
s(g9
g31
tp62
g5
(g7
S'R\x84Y\x8e\x9e\xb9\xef?'
tRp63
s(g34
g27
tp64
g36
s(g13
g34
tp65
g5
(g11
S'\x00\x00\x803'
tRp66
s(g37
g57
tp67
g5
(g11
S'\xa3\xbci?'
tRp68
s(S'turning'
p69
g57
tp70
g5
(g11
S'\xb2\x02(?'
tRp71
s(g9
g27
tp72
g5
(g11
S'\xea8w?'
tRp73
s(S'a liquid'
p74
g17
tp75
g5
(g7
S'\xd6\x04I\xf2#\x18\xf0?'
tRp76
s(g27
g69
tp77
g5
(g11
S'J\xdb\x08?'
tRp78
s(S'damp'
p79
g9
tp80
g5
(g11
S'\x00\x00\x00\x00'
tRp81
s(g74
g9
tp82
g5
(g7
S'\xe4g\x15D+\xa6\xf0?'
tRp83
s(g13
g69
tp84
g5
(g11
S'U\xd72?'
tRp85
s(g27
g17
tp86
g5
(g7
S'-\x81\xa5\xaa\x98_\xee?'
tRp87
s(g3
g57
tp88
g5
(g7
S'\xfc\xa04\xd5o\xc5\xf0?'
tRp89
s(g57
S'changing'
p90
tp91
g5
(g11
S'\x00\x00\x00\xb4'
tRp92
s(g57
g9
tp93
g5
(g11
S'~\xb6\\?'
tRp94
s(g69
g13
tp95
g85
s(g74
g23
tp96
g5
(g7
S'\x87\xf6\xec\xdc3\x1e\xf1?'
tRp97
s(g57
g3
tp98
g89
s(g14
g27
tp99
g5
(g11
S'\xfb\xb1p?'
tRp100
s(g28
g27
tp101
g30
s(g34
g57
tp102
g5
(g11
S'_\x12K?'
tRp103
s(g23
g13
tp104
g49
s(g20
g14
tp105
g5
(g11
S'\xf4Fp?'
tRp106
s(g23
g40
tp107
g5
(g7
S'\xdd\x11\xda\xc0\xb1\xe1\xed?'
tRp108
s(g3
g13
tp109
g5
(g7
S'\xda)\xd4hN\xb2\xf1?'
tRp110
s(g28
g20
tp111
g5
(g7
S'qg\x82\x1a\x8b\xe9\xec?'
tRp112
s(g17
g27
tp113
g87
s(g17
g2
tp114
g5
(g7
S'n\x94\xd1\x9d\xe0\xb7\xef?'
tRp115
s(g40
g14
tp116
g42
s(g2
g23
tp117
g5
(g11
S'J_\x01?'
tRp118
s(g79
g23
tp119
g5
(g11
S'x:R?'
tRp120
s(g37
g13
tp121
g5
(g11
S'N)\x80?'
tRp122
s(g23
g74
tp123
g97
s(g31
g37
tp124
g5
(g7
S'\x9d\x8b`\xde\\F\xf0?'
tRp125
s(g27
S'converting'
p126
tp127
g5
(g11
S'\x00\x00\x803'
tRp128
s(g14
g2
tp129
g5
(g11
S'\xea\xed=?'
tRp130
s(g57
g17
tp131
g5
(g7
S'\x7f{\xa6\xb1\xd2l\xee?'
tRp132
s(g9
g20
tp133
g5
(g11
S'1sg?'
tRp134
s(g17
g57
tp135
g132
s(g23
g2
tp136
g118
s(g14
g20
tp137
g106
s(g74
g3
tp138
g5
(g7
S'\xd2\x97\xf7\xb1pB\xec?'
tRp139
s(g28
g13
tp140
g5
(g7
S'\x08|W%a \xee?'
tRp141
s(g9
g40
tp142
g5
(g7
S'\xec\x9aV\xa0D\x1b\xef?'
tRp143
s(g9
g13
tp144
g5
(g11
S'\xa8\x05k?'
tRp145
s(g13
g37
tp146
g122
s(g23
g27
tp147
g52
s(g126
g57
tp148
g5
(g11
S'\x0c\xafA?'
tRp149
s(g57
g14
tp150
g59
s(g3
g2
tp151
g8
s(g24
g23
tp152
g26
s(g20
g69
tp153
g5
(g11
S'\x00\x00\x00\xb4'
tRp154
s(g20
g17
tp155
g44
s(g40
g9
tp156
g143
s(g27
g3
tp157
g54
s(g2
g37
tp158
g5
(g11
S'\x00\x00\x80\xb4'
tRp159
s(g27
g37
tp160
g39
s(g14
g13
tp161
g16
s(g23
g57
tp162
g5
(g11
S'+\x82n?'
tRp163
s(g14
g31
tp164
g33
s(g28
g57
tp165
g5
(g7
S'R\xe0\xef,[\xb5\xee?'
tRp166
s(g40
g23
tp167
g108
s(g9
g24
tp168
g5
(g11
S'\xe3\xf7a?'
tRp169
s(g13
g3
tp170
g110
s(g37
g31
tp171
g125
s(g31
g23
tp172
g56
s(g20
g28
tp173
g112
s(g13
g9
tp174
g145
s(g2
g17
tp175
g115
s(g20
g9
tp176
g134
s(g40
g3
tp177
g5
(g7
S'%\x17={\xedY\xee?'
tRp178
s(g23
g20
tp179
g5
(g11
S'\xe0\x97j?'
tRp180
s(g9
g2
tp181
g12
s(g57
g23
tp182
g163
s(g3
g31
tp183
g5
(g7
S'ZW\x18\xec\xf2U\xf1?'
tRp184
s(g2
g14
tp185
g130
s(g31
g9
tp186
g63
s(g31
g3
tp187
g184
s(g24
g14
tp188
g5
(g11
S'\x00\x00\x00\x00'
tRp189
s(g57
g126
tp190
g149
s(g13
g28
tp191
g141
s(g69
g27
tp192
g78
s(g3
g74
tp193
g139
s(g24
g9
tp194
g169
s(g14
g74
tp195
g5
(g7
S'\x1fDM\x8a#\xe0\xf0?'
tRp196
s(g57
g69
tp197
g71
s(g74
g14
tp198
g196
s(g23
g79
tp199
g120
s(g27
g9
tp200
g73
s(g3
g20
tp201
g22
s(g20
g37
tp202
g5
(g11
S'-Aj?'
tRp203
s(g57
g37
tp204
g68
s(g27
g14
tp205
g100
s(g57
g28
tp206
g166
s(g31
g17
tp207
g5
(g7
S'\x8b\xb5+=\xdf\x05\xed?'
tRp208
s(g9
g57
tp209
g94
s(g57
g34
tp210
g103
s(g37
g20
tp211
g203
s(g17
g31
tp212
g208
s(g20
g23
tp213
g180
s(g9
g74
tp214
g83
s.