(dp1
(S'liquid'
p2
S'water vapor'
p3
tp4
F0.5
s(g2
S'damp'
p5
tp6
F0.69999999999999996
s(S'returning'
p7
S'gas'
p8
tp9
F0.29999999999999999
s(g7
S'a liquid'
p10
tp11
F0.20000000000000001
s(S'turning'
p12
g3
tp13
F0.29999999999999999
s(S'vapor'
p14
S'gas'
p15
tp16
F0.69999999999999996
s(S'converting'
p17
S'liquid water'
p18
tp19
F0.10000000000000001
s(S'liquid water'
p20
g8
tp21
F0.40000000000000002
s(g17
S'returning'
p22
tp23
F0.69999999999999996
s(S'liquid'
p24
g17
tp25
F0.10000000000000001
s(g8
S'water vapor'
p26
tp27
F0.80000000000000004
s(g10
g12
tp28
F0.10000000000000001
s(S'vapor'
p29
g14
tp30
F1
s(g7
g14
tp31
F0.29999999999999999
s(g10
g7
tp32
F0.20000000000000001
s(g17
g14
tp33
F0.10000000000000001
s(g3
g17
tp34
F0.20000000000000001
s(g14
g20
tp35
F0.40000000000000002
s(g8
S'changing'
p36
tp37
F0.10000000000000001
s(g20
g18
tp38
F1
s(g5
g20
tp39
F0.59999999999999998
s(g22
g17
tp40
F0.69999999999999996
s(g7
g22
tp41
F1
s(g24
g36
tp42
F0.10000000000000001
s(S'turning'
p43
g36
tp44
F0.80000000000000004
s(g5
g17
tp45
F0.10000000000000001
s(S'a liquid'
p46
g10
tp47
F1
s(g17
g43
tp48
F0.80000000000000004
s(S'damp'
p49
g5
tp50
F1
s(g46
g5
tp51
F0.69999999999999996
s(g7
g43
tp52
F0.80000000000000004
s(g17
g10
tp53
F0.20000000000000001
s(g3
g36
tp54
F0.10000000000000001
s(g36
S'changing'
p55
tp56
F1
s(g36
g5
tp57
F0.10000000000000001
s(g43
g7
tp58
F0.80000000000000004
s(g46
g14
tp59
F0.40000000000000002
s(g36
g3
tp60
F0.10000000000000001
s(g8
g17
tp61
F0.10000000000000001
s(g18
g17
tp62
F0.10000000000000001
s(g22
g36
tp63
F0.69999999999999996
s(g14
g7
tp64
F0.29999999999999999
s(g12
g8
tp65
F0.20000000000000001
s(g14
g26
tp66
F0.80000000000000004
s(g3
g7
tp67
F0.29999999999999999
s(g18
g12
tp68
F0.10000000000000001
s(g10
g17
tp69
F0.20000000000000001
s(g10
g2
tp70
F1
s(g26
g8
tp71
F0.80000000000000004
s(g2
g14
tp72
F0.40000000000000002
s(g49
g14
tp73
F0.80000000000000004
s(g24
g7
tp74
F0.10000000000000001
s(g14
g46
tp75
F0.40000000000000002
s(g20
g24
tp76
F0.90000000000000002
s(g17
S'converting'
p77
tp78
F1
s(g8
g2
tp79
F0.20000000000000001
s(g36
g10
tp80
F0.10000000000000001
s(g5
g12
tp81
F0.10000000000000001
s(g10
g36
tp82
F0.10000000000000001
s(g14
g2
tp83
F0.40000000000000002
s(g8
g12
tp84
F0.20000000000000001
s(g46
g3
tp85
F0.59999999999999998
s(g18
g7
tp86
F0.20000000000000001
s(g5
g26
tp87
F0.59999999999999998
s(g5
g7
tp88
F0.20000000000000001
s(g7
g24
tp89
F0.10000000000000001
s(g14
g17
tp90
F0.10000000000000001
s(g77
g36
tp91
F0.90000000000000002
s(g36
g8
tp92
F0.10000000000000001
s(g3
g2
tp93
F0.5
s(g15
g14
tp94
F0.69999999999999996
s(g12
g43
tp95
F1
s(g12
g10
tp96
F0.10000000000000001
s(g26
g5
tp97
F0.59999999999999998
s(g17
g3
tp98
F0.20000000000000001
s(g2
g24
tp99
F1
s(g17
g24
tp100
F0.10000000000000001
s(g8
g7
tp101
F0.29999999999999999
s(g14
g36
tp102
F0.10000000000000001
s(g8
g20
tp103
F0.40000000000000002
s(g18
g36
tp104
F0.10000000000000001
s(g26
g14
tp105
F0.80000000000000004
s(g5
g15
tp106
F0.59999999999999998
s(g7
g3
tp107
F0.29999999999999999
s(g24
g20
tp108
F0.90000000000000002
s(g20
g14
tp109
F0.40000000000000002
s(g12
g18
tp110
F0.10000000000000001
s(g7
g5
tp111
F0.20000000000000001
s(g2
g10
tp112
F1
s(g12
g5
tp113
F0.10000000000000001
s(g26
g3
tp114
F1
s(g14
g12
tp115
F0.20000000000000001
s(g5
g2
tp116
F0.69999999999999996
s(g36
g14
tp117
F0.10000000000000001
s(g3
g20
tp118
F0.69999999999999996
s(g2
g8
tp119
F0.20000000000000001
s(g20
g5
tp120
F0.59999999999999998
s(g20
g3
tp121
F0.69999999999999996
s(g15
g8
tp122
F1
s(g36
g77
tp123
F0.90000000000000002
s(g7
g18
tp124
F0.20000000000000001
s(g43
g17
tp125
F0.80000000000000004
s(g3
g46
tp126
F0.59999999999999998
s(g15
g5
tp127
F0.59999999999999998
s(g8
g46
tp128
F0.29999999999999999
s(g36
g43
tp129
F0.80000000000000004
s(g46
g8
tp130
F0.29999999999999999
s(g14
g49
tp131
F0.80000000000000004
s(g17
g5
tp132
F0.10000000000000001
s(g3
g12
tp133
F0.29999999999999999
s(g12
g24
tp134
F0.10000000000000001
s(g36
g24
tp135
F0.10000000000000001
s(g17
g8
tp136
F0.10000000000000001
s(g36
g18
tp137
F0.10000000000000001
s(g20
g10
tp138
F0.90000000000000002
s(g5
g36
tp139
F0.10000000000000001
s(g36
g22
tp140
F0.69999999999999996
s(g24
g12
tp141
F0.10000000000000001
s(g10
g20
tp142
F0.90000000000000002
s(g12
g14
tp143
F0.20000000000000001
s(g5
g46
tp144
F0.69999999999999996
s.