(dp1
(S'one or more new individuals'
p2
S'new individual'
p3
tp4
F0.90000000000000002
s(S'producing'
p5
S'just one parent'
p6
tp7
F0.20000000000000001
s(g6
S'creating'
p8
tp9
F0.40000000000000002
s(S'reproducing'
p10
S'single parent'
p11
tp12
F0.20000000000000001
s(S'creating'
p13
S'one individual organism'
p14
tp15
F0.29999999999999999
s(S'individual'
p16
S'formation'
p17
tp18
F0.40000000000000002
s(g2
g6
tp19
F0.29999999999999999
s(S'individual'
p20
S'offspring'
p21
tp22
F0.90000000000000002
s(g6
g14
tp23
F0.90000000000000002
s(g21
g6
tp24
F0.40000000000000002
s(g11
g14
tp25
F0.90000000000000002
s(g3
g14
tp26
F0.20000000000000001
s(g11
S'just one parent'
p27
tp28
F0.90000000000000002
s(S'cells of a single parent'
p29
g2
tp30
F0.29999999999999999
s(g29
g5
tp31
F0.20000000000000001
s(g2
g13
tp32
F0.29999999999999999
s(g5
g3
tp33
F0.29999999999999999
s(g17
g8
tp34
F0.90000000000000002
s(g3
S'formation'
p35
tp36
F0.40000000000000002
s(g14
g13
tp37
F0.29999999999999999
s(g21
g3
tp38
F0.90000000000000002
s(g6
g10
tp39
F0.20000000000000001
s(g10
g6
tp40
F0.20000000000000001
s(g21
g11
tp41
F0.40000000000000002
s(g29
g8
tp42
F0.20000000000000001
s(g8
S'offspring'
p43
tp44
F0.29999999999999999
s(g11
g5
tp45
F0.20000000000000001
s(g27
g17
tp46
F0.29999999999999999
s(g20
g5
tp47
F0.20000000000000001
s(g11
g21
tp48
F0.40000000000000002
s(g17
g27
tp49
F0.29999999999999999
s(g6
g21
tp50
F0.40000000000000002
s(g17
g16
tp51
F0.40000000000000002
s(g10
g17
tp52
F0.90000000000000002
s(g3
g21
tp53
F0.90000000000000002
s(g14
g20
tp54
F0.29999999999999999
s(g5
g13
tp55
F0.90000000000000002
s(S'producing'
p56
g10
tp57
F1
s(g8
g11
tp58
F0.29999999999999999
s(g29
g21
tp59
F0.20000000000000001
s(g3
g2
tp60
F0.90000000000000002
s(g43
g8
tp61
F0.29999999999999999
s(g10
S'one individual organism'
p62
tp63
F0.20000000000000001
s(g17
S'single parent'
p64
tp65
F0.20000000000000001
s(g11
g8
tp66
F0.29999999999999999
s(g2
g11
tp67
F0.20000000000000001
s(g17
g21
tp68
F0.20000000000000001
s(g14
g29
tp69
F0.90000000000000002
s(g3
g16
tp70
F0.90000000000000002
s(g8
g3
tp71
F0.20000000000000001
s(g6
g2
tp72
F0.29999999999999999
s(g3
g27
tp73
F0.20000000000000001
s(g13
g10
tp74
F0.90000000000000002
s(g29
g35
tp75
F0.20000000000000001
s(g20
g2
tp76
F0.90000000000000002
s(g6
g5
tp77
F0.20000000000000001
s(g11
g10
tp78
F0.20000000000000001
s(g17
g5
tp79
F0.90000000000000002
s(g8
g6
tp80
F0.40000000000000002
s(g10
g3
tp81
F0.20000000000000001
s(g10
g56
tp82
F1
s(g10
S'one or more new individuals'
p83
tp84
F0.20000000000000001
s(g21
g20
tp85
F0.90000000000000002
s(g14
g43
tp86
F0.5
s(g29
g14
tp87
F0.90000000000000002
s(g64
g29
tp88
F0.90000000000000002
s(g2
g17
tp89
F0.20000000000000001
s(g10
g43
tp90
F0.20000000000000001
s(g8
g13
tp91
F0.90000000000000002
s(g21
g17
tp92
F0.20000000000000001
s(g29
g27
tp93
F0.90000000000000002
s(g16
g29
tp94
F0.40000000000000002
s(g17
g14
tp95
F0.29999999999999999
s(g64
g17
tp96
F0.20000000000000001
s(g29
g16
tp97
F0.40000000000000002
s(g20
g27
tp98
F0.40000000000000002
s(g2
g29
tp99
F0.29999999999999999
s(g27
g3
tp100
F0.20000000000000001
s(g43
g10
tp101
F0.20000000000000001
s(g14
g6
tp102
F0.90000000000000002
s(g13
g5
tp103
F0.90000000000000002
s(g5
g20
tp104
F0.20000000000000001
s(g62
g10
tp105
F0.20000000000000001
s(g21
g29
tp106
F0.20000000000000001
s(g29
g64
tp107
F0.90000000000000002
s(g17
g10
tp108
F0.90000000000000002
s(g5
g29
tp109
F0.20000000000000001
s(g2
g20
tp110
F0.90000000000000002
s(g8
g29
tp111
F0.20000000000000001
s(g10
g20
tp112
F0.20000000000000001
s(g3
g10
tp113
F0.20000000000000001
s(g27
g11
tp114
F0.90000000000000002
s(g43
g14
tp115
F0.5
s(g43
g2
tp116
F0.90000000000000002
s(g35
g17
tp117
F0.90000000000000002
s(g35
g3
tp118
F0.40000000000000002
s(g29
g10
tp119
F0.10000000000000001
s(g11
g2
tp120
F0.20000000000000001
s(g17
g2
tp121
F0.20000000000000001
s(g14
g17
tp122
F0.29999999999999999
s(g14
g3
tp123
F0.20000000000000001
s(g64
g3
tp124
F0.40000000000000002
s(g3
g64
tp125
F0.40000000000000002
s(g20
g8
tp126
F0.20000000000000001
s(g83
g10
tp127
F0.20000000000000001
s(g5
g11
tp128
F0.20000000000000001
s(g20
g10
tp129
F0.20000000000000001
s(g43
g5
tp130
F0.20000000000000001
s(g20
g14
tp131
F0.29999999999999999
s(g5
g43
tp132
F0.20000000000000001
s(g10
g13
tp133
F0.90000000000000002
s(g10
g29
tp134
F0.10000000000000001
s(g8
g20
tp135
F0.20000000000000001
s(g5
g17
tp136
F0.90000000000000002
s(g35
g29
tp137
F0.20000000000000001
s(g2
g43
tp138
F0.90000000000000002
s(g27
g20
tp139
F0.40000000000000002
s(g27
g29
tp140
F0.90000000000000002
s(g21
g43
tp141
F0.90000000000000002
s(g13
g2
tp142
F0.29999999999999999
s(g3
g8
tp143
F0.20000000000000001
s(g8
g17
tp144
F0.90000000000000002
s(g3
g5
tp145
F0.29999999999999999
s(g16
g3
tp146
F0.90000000000000002
s(g14
g11
tp147
F0.90000000000000002
s.