(dp1
(S'one or more new individuals'
p2
S'new individual'
p3
tp4
cnumpy.core.multiarray
scalar
p5
(cnumpy
dtype
p6
(S'f8'
I0
I1
tRp7
(I3
S'<'
NNNI-1
I-1
I0
tbS'E<hz\xec\x94\x97\xbf'
tRp8
s(S'producing'
p9
S'just one parent'
p10
tp11
g5
(g7
S'\xb3Q\x89\x10HS\xbb\xbf'
tRp12
s(g10
S'creating'
p13
tp14
g5
(g7
S'\xa6Iy\xdc\xcd\x01i?'
tRp15
s(S'reproducing'
p16
S'single parent'
p17
tp18
g5
(g7
S'\x1bW\x9a\x8d\xf8\xfc\xb2\xbf'
tRp19
s(S'creating'
p20
S'one individual organism'
p21
tp22
g5
(g7
S'\xb2i\x8aO\x05\x1b\xa3?'
tRp23
s(S'individual'
p24
S'formation'
p25
tp26
g5
(g6
(S'f4'
I0
I1
tRp27
(I3
S'<'
NNNI-1
I-1
I0
tbS'\xf0\x82\xa1='
tRp28
s(g2
g10
tp29
g5
(g7
S'\xa7I\xe7\xfaM\xaf\x91?'
tRp30
s(S'individual'
p31
S'offspring'
p32
tp33
g5
(g27
S'QF\xc1='
tRp34
s(g10
g21
tp35
g5
(g7
S'\xd6\x0e*\xbbZ\x14\xba\xbf'
tRp36
s(g32
g10
tp37
g5
(g7
S'.\x9b\xe5\x1b\x1b\x90\xb1?'
tRp38
s(g17
g21
tp39
g5
(g7
S'\xb7\x9b\x8f\x1bLO\xab\xbf'
tRp40
s(g3
g21
tp41
g5
(g7
S'\xdc3\x9ao\x12\xe6\x92?'
tRp42
s(g17
S'just one parent'
p43
tp44
g5
(g7
S'\x8b\xd5\x04I\xf2#x\xbf'
tRp45
s(S'cells of a single parent'
p46
g2
tp47
g5
(g7
S'S"\x86j\xe3-\xa1\xbf'
tRp48
s(g46
g9
tp49
g5
(g7
S'H\xad\xb2\x0f\xb7b\xaa?'
tRp50
s(g2
g20
tp51
g5
(g7
S'\xb2\r\x7f\xf0\xc0\xc2\xbe?'
tRp52
s(g9
g3
tp53
g5
(g7
S':6.m\xa0\xbd\x97\xbf'
tRp54
s(g25
g13
tp55
g5
(g27
S'\x10\x06\xa4>'
tRp56
s(g3
S'formation'
p57
tp58
g5
(g7
S'.ib\xe6\xfd\x96\xbf?'
tRp59
s(g21
g20
tp60
g23
s(g32
g3
tp61
g5
(g7
S'\xec\xc8\xf0\x1b\xdf\xac\xbf\xbf'
tRp62
s(g10
g16
tp63
g5
(g7
S'\xbd\xda\xeffm?\xb2\xbf'
tRp64
s(g16
g10
tp65
g64
s(g32
g17
tp66
g5
(g7
S'H\xcf\x0e\xb4\xf4g\x90?'
tRp67
s(g46
g13
tp68
g5
(g7
S'\xf6\xc9\xa5!\x036\x83\xbf'
tRp69
s(g13
S'offspring'
p70
tp71
g5
(g27
S'\xe4^\xb3<'
tRp72
s(g17
g9
tp73
g5
(g7
S'\xf6\x1a\xd0\x06#\xb0\x8c?'
tRp74
s(g43
g25
tp75
g5
(g7
S'\xa2:\xdc$xw\xa2\xbf'
tRp76
s(g31
g9
tp77
g5
(g27
S'U.\x94='
tRp78
s(g17
g32
tp79
g67
s(g25
g43
tp80
g76
s(g10
g32
tp81
g38
s(g25
g24
tp82
g28
s(g16
g25
tp83
g5
(g27
S'D\\\x08>'
tRp84
s(g3
g32
tp85
g62
s(g21
g31
tp86
g5
(g7
S'\x04\xf6\xdd\x19\xcc\xa7\xb3\xbf'
tRp87
s(g9
g20
tp88
g5
(g27
S'\xe0\xa6\xf8>'
tRp89
s(S'producing'
p90
g16
tp91
g5
(g27
S'<\x1c\xe9>'
tRp92
s(g13
g17
tp93
g5
(g7
S'\xd9\x03\xc2\x0cX<\xb4\xbf'
tRp94
s(g46
g32
tp95
g5
(g7
S'\x06\x98\xb3.\xbc\x92\xab?'
tRp96
s(g3
g2
tp97
g8
s(g70
g13
tp98
g72
s(g16
S'one individual organism'
p99
tp100
g5
(g7
S'\xaamc*\xf4\xd1\xb1?'
tRp101
s(g25
S'single parent'
p102
tp103
g5
(g7
S'k\xd7\x16\xcb\xa2\xca\xbd?'
tRp104
s(g17
g13
tp105
g94
s(g2
g17
tp106
g5
(g7
S'\xa5u\x85\xc1._\xb5\xbf'
tRp107
s(g25
g32
tp108
g5
(g27
S'VZ\xcd='
tRp109
s(g21
g46
tp110
g5
(g7
S'\x92\xab\x9c\x01\x06\xcc\xab\xbf'
tRp111
s(g3
g24
tp112
g5
(g7
S'\x08\x00^|\x81F\x93\xbf'
tRp113
s(g13
g3
tp114
g5
(g7
S'RH\xad\xd9\xdd\xee\x90?'
tRp115
s(g10
g2
tp116
g30
s(g3
g43
tp117
g5
(g7
S'\x19\xf5!\xda)\x89\xa9\xbf'
tRp118
s(g20
g16
tp119
g5
(g27
S'\xab\x82\xc1>'
tRp120
s(g46
g57
tp121
g5
(g7
S'6~\x99j\xd5I\xa7\xbf'
tRp122
s(g31
g2
tp123
g5
(g7
S'o{\xb4.\xf8[\xad\xbf'
tRp124
s(g10
g9
tp125
g12
s(g17
g16
tp126
g19
s(g25
g9
tp127
g5
(g27
S'k\xa5\\>'
tRp128
s(g13
g10
tp129
g15
s(g16
g3
tp130
g5
(g7
S"Z\xd0\x83'^\xefq?"
tRp131
s(g16
g90
tp132
g92
s(g16
S'one or more new individuals'
p133
tp134
g5
(g7
S'\xc2\xadV\xf0\xc6\x11\xa3?'
tRp135
s(g32
g31
tp136
g34
s(g21
g70
tp137
g5
(g7
S'\xea\xa9;\x1bvM\xa6?'
tRp138
s(g46
g21
tp139
g111
s(g102
g46
tp140
g5
(g7
S'\x86\xe1f\xd4\x8c\xea\xa7?'
tRp141
s(g2
g25
tp142
g5
(g7
S':\xfdk(q]\x90\xbf'
tRp143
s(g16
g70
tp144
g5
(g27
S'?6\xba>'
tRp145
s(g13
g20
tp146
g5
(g27
S'\x01\x00\x80?'
tRp147
s(g32
g25
tp148
g109
s(g46
g43
tp149
g5
(g7
S'\xaf\x8d.L(a\xaa?'
tRp150
s(g24
g46
tp151
g5
(g7
S'\xb6\x92Tf\xf3\xccd?'
tRp152
s(g25
g21
tp153
g5
(g7
S'l\xa1\xbda,\x83\xba?'
tRp154
s(g102
g25
tp155
g104
s(g46
g24
tp156
g152
s(g31
g43
tp157
g5
(g7
S'\xa4\xf0\xad0\xc3L\xbc\xbf'
tRp158
s(g2
g46
tp159
g48
s(g43
g3
tp160
g118
s(g70
g16
tp161
g145
s(g21
g10
tp162
g36
s(g20
g9
tp163
g89
s(g9
g31
tp164
g78
s(g99
g16
tp165
g101
s(g32
g46
tp166
g96
s(g46
g102
tp167
g141
s(g25
g16
tp168
g84
s(g9
g46
tp169
g50
s(g2
g31
tp170
g124
s(g13
g46
tp171
g69
s(g16
g31
tp172
g5
(g27
S'\xdd\xaf\xb2='
tRp173
s(g3
g16
tp174
g131
s(g43
g17
tp175
g45
s(g70
g21
tp176
g138
s(g70
g2
tp177
g5
(g7
S'\x1a}\x12[sy\xc1?'
tRp178
s(g57
g25
tp179
g5
(g27
S'\x01\x00\x80?'
tRp180
s(g57
g3
tp181
g59
s(g46
g16
tp182
g5
(g7
S'\\\x11@r\x1f\x16\x9e?'
tRp183
s(g17
g2
tp184
g107
s(g25
g2
tp185
g143
s(g21
g25
tp186
g154
s(g21
g3
tp187
g42
s(g102
g3
tp188
g5
(g7
S'm\xbati\xc0\xbc\xb1?'
tRp189
s(g3
g102
tp190
g189
s(g31
g13
tp191
g5
(g27
S'\t\t+>'
tRp192
s(g133
g16
tp193
g135
s(g9
g17
tp194
g74
s(g31
g16
tp195
g173
s(g70
g9
tp196
g5
(g27
S'\xc9e\x02>'
tRp197
s(g31
g21
tp198
g87
s(g9
g70
tp199
g197
s(g16
g20
tp200
g120
s(g16
g46
tp201
g183
s(g13
g31
tp202
g192
s(g9
g25
tp203
g128
s(g57
g46
tp204
g122
s(g2
g70
tp205
g178
s(g43
g31
tp206
g158
s(g43
g46
tp207
g150
s(g32
g70
tp208
g5
(g27
S'\x00\x00\x80?'
tRp209
s(g20
g2
tp210
g52
s(g3
g13
tp211
g115
s(g13
g25
tp212
g56
s(g3
g9
tp213
g54
s(g24
g3
tp214
g113
s(g21
g17
tp215
g40
s.